target datalayout = "e-m:e-p270:32:32-p271:32:32-p272:64:64-i64:64-i128:128-f80:128-n8:16:32:64-S128"
target triple = "x86_64-unknown-linux-gnu"

%"class.std::__cxx11::basic_string" = type { %"struct.std::__cxx11::basic_string<char>::_Alloc_hider", i64, %union.anon.21 }
%"struct.std::__cxx11::basic_string<char>::_Alloc_hider" = type { ptr }
%union.anon.21 = type { i64, [8 x i8] }
%"struct.OpenImageIO_v2_6_0::psd_pvt::ImageResourceBlock" = type { [4 x i8], i16, %"class.std::__cxx11::basic_string", i32, i64 }

@.str.58 = private unnamed_addr constant [5 x i8] c"8BIM\00", align 1
@.str.59 = private unnamed_addr constant [35 x i8] c"[Image Resource] invalid signature\00", align 1

; Function Attrs: mustprogress uwtable
define hidden noundef zeroext i1 @_ZN18OpenImageIO_v2_6_08PSDInput17validate_resourceERNS_7psd_pvt18ImageResourceBlockE(ptr noundef nonnull align 8 dereferenceable(840) %this, ptr noundef nonnull align 8 dereferenceable(56) %block) #6 align 2 {
entry:
  %retval = alloca i1, align 1
  %this.addr = alloca ptr, align 8
  %block.addr = alloca ptr, align 8
  store ptr %this, ptr %this.addr, align 8
  store ptr %block, ptr %block.addr, align 8
  %this1 = load ptr, ptr %this.addr, align 8
  %0 = load ptr, ptr %block.addr, align 8
  %signature = getelementptr inbounds %"struct.OpenImageIO_v2_6_0::psd_pvt::ImageResourceBlock", ptr %0, i32 0, i32 0
  %arraydecay = getelementptr inbounds [4 x i8], ptr %signature, i64 0, i64 0
  %call = call i32 @memcmp(ptr noundef %arraydecay, ptr noundef @.str.58, i64 noundef 4) #19
  %cmp = icmp ne i32 %call, 0
  br i1 %cmp, label %if.then, label %if.end

if.then:                                          ; preds = %entry
  call void @_ZNK18OpenImageIO_v2_6_010ImageInput8errorfmtIJEEEvPKcDpRKT_(ptr noundef nonnull align 8 dereferenceable(184) %this1, ptr noundef @.str.59)
  store i1 false, ptr %retval, align 1
  br label %return

if.end:                                           ; preds = %entry
  store i1 true, ptr %retval, align 1
  br label %return

return:                                           ; preds = %if.end, %if.then
  %1 = load i1, ptr %retval, align 1
  ret i1 %1
}