; Function Attrs: mustprogress uwtable
define hidden noundef zeroext i1 @_ZN18OpenImageIO_v2_6_08PSDInput17validate_resourceERNS_7psd_pvt18ImageResourceBlockE(ptr noundef nonnull align 8 dereferenceable(840) %this, ptr nocapture noundef nonnull readonly align 8 dereferenceable(56) %block) local_unnamed_addr #5 align 2 {
entry:
  %lhsv = load i32, ptr %block, align 8
  %.not = icmp eq i32 %lhsv, 1296646712
  br i1 %.not, label %return, label %if.then

if.then:                                          ; preds = %entry
  tail call void @_ZNK18OpenImageIO_v2_6_010ImageInput8errorfmtIJEEEvPKcDpRKT_(ptr noundef nonnull align 8 dereferenceable(184) %this, ptr noundef nonnull @.str.59)
  br label %return

return:                                           ; preds = %entry, %if.then
  ret i1 %.not
}